(lp0
(imodels
problems_data
p1
(dp2
S'problem_code'
p3
S'q1'
p4
sS'problem_id'
p5
S''
p6
sS'problem_statement'
p7
S'this is a testing problem.Here you can test your problem'
p8
sS'problem_name'
p9
S'testing problem'
p10
sba(imodels
problems_data
p11
(dp12
g3
S'q2'
p13
sg5
g6
sg7
S'this is a testing problem.Here you can test your problem2'
p14
sg9
S'testing problem2'
p15
sba.