(lp0
ccopy_reg
_reconstructor
p1
(cserver_modules.models
problems_data
p2
c__builtin__
object
p3
Ntp4
Rp5
(dp6
S'problem_code'
p7
Vpiyush
p8
sS'problem_id'
p9
S'20'
p10
sS'problem_statement'
p11
V1000
p12
sS'problem_name'
p13
Vmine
p14
sba.