(lp0
ccopy_reg
_reconstructor
p1
(cserver_modules.models
problems_data
p2
c__builtin__
object
p3
Ntp4
Rp5
(dp6
S'problem_code'
p7
Vcaf
p8
sS'problem_id'
p9
S'5'
p10
sS'problem_statement'
p11
V\u000a\u000abroadcast$$$geee\u000aresult$$$AC\u000a\u000a\u000a
p12
sS'problem_name'
p13
Vchru and frnd
p14
sbag1
(g2
g3
Ntp15
Rp16
(dp17
g7
Vdbp
p18
sg9
S'6'
p19
sg11
V\u000a\u000abroadcast$$$geee\u000aresult$$$AC\u000a\u000a\u000a
p20
sg13
Vdusri prob
p21
sba.